; Function Attrs: mustprogress uwtable
define internal noundef nonnull ptr @_ZN7testing8internal15TestMetaFactoryIN11opencv_test12_GLOBAL__N_166INTERP_GRID_Dense_OpticalFlow_DenseRLOF_OpticalFlow_DenseRLOF_TestEE17CreateTestFactoryESt5tupleIJNSt7__cxx1112basic_stringIcSt11char_traitsIcESaIcEEEiEE(ptr nocapture nonnull readnone align 8 %0, ptr noundef %1) unnamed_addr #3 align 2 personality ptr @__gxx_personality_v0 {
  %3 = alloca %"class.std::tuple.95", align 8
  %4 = tail call noalias noundef nonnull dereferenceable(48) ptr @_Znwm(i64 noundef 48) #27
  %5 = load i32, ptr %1, align 8
  store i32 %5, ptr %3, align 8
  %6 = getelementptr inbounds i8, ptr %3, i64 8
  %7 = getelementptr inbounds i8, ptr %1, i64 8
  invoke void @_ZNSt7__cxx1112basic_stringIcSt11char_traitsIcESaIcEEC1ERKS4_(ptr noundef nonnull align 8 dereferenceable(32) %6, ptr noundef nonnull align 8 dereferenceable(32) %7)
          to label %_ZNSt5tupleIJNSt7__cxx1112basic_stringIcSt11char_traitsIcESaIcEEEiEEC2ERKS6_.exit unwind label %11

_ZNSt5tupleIJNSt7__cxx1112basic_stringIcSt11char_traitsIcESaIcEEEiEEC2ERKS6_.exit: ; preds = %2
  store ptr getelementptr inbounds inrange(-16, 24) (i8, ptr @_ZTVN7testing12_GLOBAL__N_124ParameterizedTestFactoryIN11opencv_test12_GLOBAL__N_166INTERP_GRID_Dense_OpticalFlow_DenseRLOF_OpticalFlow_DenseRLOF_TestEEE, i64 16), ptr %4, align 8
  %8 = getelementptr inbounds i8, ptr %4, i64 8
  %9 = load i32, ptr %3, align 8
  store i32 %9, ptr %8, align 8
  %10 = getelementptr inbounds i8, ptr %4, i64 16
  invoke void @_ZNSt7__cxx1112basic_stringIcSt11char_traitsIcESaIcEEC1ERKS4_(ptr noundef nonnull align 8 dereferenceable(32) %10, ptr noundef nonnull align 8 dereferenceable(32) %6)
          to label %_ZN7testing12_GLOBAL__N_124ParameterizedTestFactoryIN11opencv_test12_GLOBAL__N_166INTERP_GRID_Dense_OpticalFlow_DenseRLOF_OpticalFlow_DenseRLOF_TestEEC2ESt5tupleIJNSt7__cxx1112basic_stringIcSt11char_traitsIcESaIcEEEiEE.exit unwind label %13

_ZN7testing12_GLOBAL__N_124ParameterizedTestFactoryIN11opencv_test12_GLOBAL__N_166INTERP_GRID_Dense_OpticalFlow_DenseRLOF_OpticalFlow_DenseRLOF_TestEEC2ESt5tupleIJNSt7__cxx1112basic_stringIcSt11char_traitsIcESaIcEEEiEE.exit: ; preds = %_ZNSt5tupleIJNSt7__cxx1112basic_stringIcSt11char_traitsIcESaIcEEEiEEC2ERKS6_.exit
  call void @_ZNSt7__cxx1112basic_stringIcSt11char_traitsIcESaIcEED1Ev(ptr noundef nonnull align 8 dereferenceable(32) %6) #24
  ret ptr %4

11:                                               ; preds = %2
  %12 = landingpad { ptr, i32 }
          cleanup
  br label %15

13:                                               ; preds = %_ZNSt5tupleIJNSt7__cxx1112basic_stringIcSt11char_traitsIcESaIcEEEiEEC2ERKS6_.exit
  %14 = landingpad { ptr, i32 }
          cleanup
  call void @_ZNSt7__cxx1112basic_stringIcSt11char_traitsIcESaIcEED1Ev(ptr noundef nonnull align 8 dereferenceable(32) %6) #24
  br label %15

15:                                               ; preds = %11, %13
  %.pn = phi { ptr, i32 } [ %14, %13 ], [ %12, %11 ]
  call void @_ZdlPv(ptr noundef nonnull %4) #28
  resume { ptr, i32 } %.pn
}